; Function Attrs: mustprogress nounwind uwtable
define hidden noundef zeroext i1 @_ZN23JfrVirtualMemoryManager17expand_segment_byEP23JfrVirtualMemorySegmentm(ptr nocapture noundef nonnull align 8 dereferenceable(48) %0, ptr noundef %1, i64 noundef %2) local_unnamed_addr #0 align 2 {
  %4 = getelementptr inbounds i8, ptr %1, i64 72
  %5 = tail call noundef i64 @_ZNK12VirtualSpace21actual_committed_sizeEv(ptr noundef nonnull align 8 dereferenceable(112) %4) #11
  %6 = lshr i64 %5, 3
  %7 = shl i64 %2, 3
  %8 = tail call noundef i64 @_ZNK12VirtualSpace13reserved_sizeEv(ptr noundef nonnull align 8 dereferenceable(112) %4) #11
  %9 = tail call noundef i64 @_ZNK12VirtualSpace21actual_committed_sizeEv(ptr noundef nonnull align 8 dereferenceable(112) %4) #11
  %10 = sub i64 %8, %9
  %spec.select.i = tail call i64 @llvm.umin.i64(i64 %10, i64 %7)
  %11 = tail call noundef zeroext i1 @_ZN12VirtualSpace9expand_byEmb(ptr noundef nonnull align 8 dereferenceable(112) %4, i64 noundef %spec.select.i, i1 noundef zeroext false) #11
  %12 = tail call noundef i64 @_ZNK12VirtualSpace21actual_committed_sizeEv(ptr noundef nonnull align 8 dereferenceable(112) %4) #11
  %13 = lshr i64 %12, 3
  %14 = sub nsw i64 %13, %6
  %15 = getelementptr inbounds i8, ptr %0, i64 40
  %16 = load i64, ptr %15, align 8
  %17 = add i64 %14, %16
  store i64 %17, ptr %15, align 8
  ret i1 %11
}